	.file	"tarc.c"
	.text
.Ltext0:
	.section	.rodata
.LC0:
	.string	"/"
	.text
	.globl	get_dir_suffix
	.type	get_dir_suffix, @function
get_dir_suffix:
.LFB2:
	.file 1 "tarc.c"
	.loc 1 30 0
	.cfi_startproc
	pushq	%rbp
	.cfi_def_cfa_offset 16
	.cfi_offset 6, -16
	movq	%rsp, %rbp
	.cfi_def_cfa_register 6
	subq	$32, %rsp
	movq	%rdi, -24(%rbp)
	.loc 1 31 0
	movq	-24(%rbp), %rax
	movl	$.LC0, %esi
	movq	%rax, %rdi
	call	strtok
	movq	%rax, -8(%rbp)
	.loc 1 35 0
	jmp	.L2
.L3:
	.loc 1 36 0
	movq	-8(%rbp), %rax
	movq	%rax, -16(%rbp)
	.loc 1 37 0
	movl	$.LC0, %esi
	movl	$0, %edi
	call	strtok
	movq	%rax, -8(%rbp)
.L2:
	.loc 1 35 0 discriminator 1
	cmpq	$0, -8(%rbp)
	jne	.L3
	.loc 1 41 0
	movq	-16(%rbp), %rax
	.loc 1 42 0
	leave
	.cfi_def_cfa 7, 8
	ret
	.cfi_endproc
.LFE2:
	.size	get_dir_suffix, .-get_dir_suffix
	.section	.rodata
	.align 8
.LC1:
	.string	"%s: No such file or directory\n"
.LC2:
	.string	"r"
	.text
	.globl	print_file
	.type	print_file, @function
print_file:
.LFB3:
	.loc 1 52 0
	.cfi_startproc
	pushq	%rbp
	.cfi_def_cfa_offset 16
	.cfi_offset 6, -16
	movq	%rsp, %rbp
	.cfi_def_cfa_register 6
	pushq	%r15
	pushq	%r14
	pushq	%r13
	pushq	%r12
	pushq	%rbx
	subq	$232, %rsp
	.cfi_offset 15, -24
	.cfi_offset 14, -32
	.cfi_offset 13, -40
	.cfi_offset 12, -48
	.cfi_offset 3, -56
	movq	%rdi, -248(%rbp)
	movq	%rsi, -256(%rbp)
	movq	%rdx, -264(%rbp)
	movq	%rsp, %rax
	movq	%rax, %rbx
	.loc 1 55 0
	leaq	-224(%rbp), %rdx
	movq	-248(%rbp), %rax
	movq	%rdx, %rsi
	movq	%rax, %rdi
	call	stat
	cmpl	$-1, %eax
	jne	.L6
	.loc 1 56 0
	movq	stderr(%rip), %rax
	movq	-248(%rbp), %rdx
	movl	$.LC1, %esi
	movq	%rax, %rdi
	movl	$0, %eax
	call	fprintf
	.loc 1 57 0
	movl	$1, %edi
	call	exit
.L6:
	.loc 1 58 0
	movl	-200(%rbp), %eax
	andl	$61440, %eax
	cmpl	$40960, %eax
	jne	.L7
	.loc 1 60 0
	movl	$1, %eax
	jmp	.L8
.L7:
	.loc 1 64 0
	movq	-256(%rbp), %rax
	movq	%rax, %rdi
	call	strlen
	movl	%eax, -228(%rbp)
	.loc 1 65 0
	movq	stdout(%rip), %rdx
	leaq	-228(%rbp), %rax
	movq	%rdx, %rcx
	movl	$1, %edx
	movl	$4, %esi
	movq	%rax, %rdi
	call	fwrite
	.loc 1 66 0
	movq	stdout(%rip), %rcx
	movl	-228(%rbp), %eax
	movslq	%eax, %rdx
	movq	-256(%rbp), %rax
	movl	$1, %esi
	movq	%rax, %rdi
	call	fwrite
	.loc 1 69 0
	movq	stdout(%rip), %rax
	leaq	-224(%rbp), %rdx
	leaq	8(%rdx), %rdi
	movq	%rax, %rcx
	movl	$1, %edx
	movl	$8, %esi
	call	fwrite
	.loc 1 72 0
	movq	-216(%rbp), %rax
	movl	%eax, %edx
	movq	-264(%rbp), %rax
	movl	%edx, %esi
	movq	%rax, %rdi
	call	jrb_find_int
	testq	%rax, %rax
	je	.L9
	.loc 1 73 0
	movl	$0, %eax
	jmp	.L8
.L9:
	.loc 1 75 0
	movq	-248(%rbp), %rax
	movq	%rax, %rdi
	call	new_jval_s
	movq	%rax, %rdx
	movq	-216(%rbp), %rax
	movl	%eax, %ecx
	movq	-264(%rbp), %rax
	movl	%ecx, %esi
	movq	%rax, %rdi
	call	jrb_insert_int
	.loc 1 78 0
	movq	stdout(%rip), %rax
	leaq	-224(%rbp), %rdx
	leaq	24(%rdx), %rdi
	movq	%rax, %rcx
	movl	$1, %edx
	movl	$4, %esi
	call	fwrite
	.loc 1 79 0
	movq	stdout(%rip), %rax
	leaq	-224(%rbp), %rdx
	leaq	88(%rdx), %rdi
	movq	%rax, %rcx
	movl	$1, %edx
	movl	$8, %esi
	call	fwrite
	.loc 1 82 0
	movl	-200(%rbp), %eax
	andl	$61440, %eax
	cmpl	$16384, %eax
	jne	.L10
	.loc 1 83 0
	movl	$0, %eax
	jmp	.L8
.L10:
	.loc 1 87 0
	movq	-176(%rbp), %rax
	leaq	-1(%rax), %rdx
	movq	%rdx, -56(%rbp)
	movq	%rax, %rdx
	movq	%rdx, %r14
	movl	$0, %r15d
	movq	%rax, %rdx
	movq	%rdx, %r12
	movl	$0, %r13d
	movl	$16, %edx
	subq	$1, %rdx
	addq	%rdx, %rax
	movl	$16, %esi
	movl	$0, %edx
	divq	%rsi
	imulq	$16, %rax, %rax
	subq	%rax, %rsp
	movq	%rsp, %rax
	addq	$0, %rax
	movq	%rax, -64(%rbp)
	.loc 1 88 0
	movq	-248(%rbp), %rax
	movl	$.LC2, %esi
	movq	%rax, %rdi
	call	fopen
	movq	%rax, -72(%rbp)
	.loc 1 89 0
	cmpq	$0, -72(%rbp)
	jne	.L11
	.loc 1 90 0
	movl	$1, %edi
	call	exit
.L11:
	.loc 1 94 0
	movq	-176(%rbp), %rax
	movq	%rax, %rdx
	movq	-64(%rbp), %rax
	movq	-72(%rbp), %rcx
	movl	$1, %esi
	movq	%rax, %rdi
	call	fread
	.loc 1 95 0
	movq	-72(%rbp), %rax
	movq	%rax, %rdi
	call	fclose
	.loc 1 98 0
	movq	stdout(%rip), %rax
	leaq	-224(%rbp), %rdx
	leaq	48(%rdx), %rdi
	movq	%rax, %rcx
	movl	$1, %edx
	movl	$8, %esi
	call	fwrite
	.loc 1 99 0
	movq	stdout(%rip), %rcx
	movq	-176(%rbp), %rax
	movq	%rax, %rdx
	movq	-64(%rbp), %rax
	movl	$1, %esi
	movq	%rax, %rdi
	call	fwrite
	.loc 1 102 0
	movl	$0, %eax
.L8:
	movq	%rbx, %rsp
	.loc 1 103 0
	leaq	-40(%rbp), %rsp
	popq	%rbx
	popq	%r12
	popq	%r13
	popq	%r14
	popq	%r15
	popq	%rbp
	.cfi_def_cfa 7, 8
	ret
	.cfi_endproc
.LFE3:
	.size	print_file, .-print_file
	.section	.rodata
.LC3:
	.string	"."
.LC4:
	.string	".."
.LC5:
	.string	"%s/%s"
	.text
	.globl	iterate_dir
	.type	iterate_dir, @function
iterate_dir:
.LFB4:
	.loc 1 112 0
	.cfi_startproc
	pushq	%rbp
	.cfi_def_cfa_offset 16
	.cfi_offset 6, -16
	movq	%rsp, %rbp
	.cfi_def_cfa_register 6
	subq	$720, %rsp
	movq	%rdi, -712(%rbp)
	movq	%rsi, -720(%rbp)
	.loc 1 114 0
	movq	-712(%rbp), %rax
	movq	%rax, %rdi
	call	opendir
	movq	%rax, -16(%rbp)
	.loc 1 116 0
	cmpq	$0, -16(%rbp)
	jne	.L14
	.loc 1 117 0
	movq	-712(%rbp), %rdx
	movq	stderr(%rip), %rax
	movl	$.LC1, %esi
	movq	%rax, %rdi
	movl	$0, %eax
	call	fprintf
	.loc 1 118 0
	movl	$1, %edi
	call	exit
.L14:
	.loc 1 121 0
	movl	$0, %eax
	call	new_dllist
	movq	%rax, -24(%rbp)
	.loc 1 127 0
	jmp	.L15
.L21:
.LBB2:
	.loc 1 129 0
	movq	-32(%rbp), %rax
	addq	$19, %rax
	movl	$.LC3, %esi
	movq	%rax, %rdi
	call	strcmp
	testl	%eax, %eax
	je	.L16
	.loc 1 129 0 is_stmt 0 discriminator 1
	movq	-32(%rbp), %rax
	addq	$19, %rax
	movl	$.LC4, %esi
	movq	%rax, %rdi
	call	strcmp
	testl	%eax, %eax
	jne	.L17
.L16:
	.loc 1 130 0 is_stmt 1
	jmp	.L15
.L17:
	.loc 1 133 0
	movq	-32(%rbp), %rax
	leaq	19(%rax), %rcx
	movq	-712(%rbp), %rdx
	leaq	-304(%rbp), %rax
	movl	$.LC5, %esi
	movq	%rax, %rdi
	movl	$0, %eax
	call	sprintf
	.loc 1 134 0
	movq	-32(%rbp), %rax
	leaq	19(%rax), %rcx
	movq	-712(%rbp), %rax
	leaq	256(%rax), %rdx
	leaq	-560(%rbp), %rax
	movl	$.LC5, %esi
	movq	%rax, %rdi
	movl	$0, %eax
	call	sprintf
	.loc 1 137 0
	movq	-720(%rbp), %rdx
	leaq	-560(%rbp), %rcx
	leaq	-304(%rbp), %rax
	movq	%rcx, %rsi
	movq	%rax, %rdi
	call	print_file
	.loc 1 140 0
	leaq	-704(%rbp), %rdx
	leaq	-304(%rbp), %rax
	movq	%rdx, %rsi
	movq	%rax, %rdi
	call	stat
	cmpl	$-1, %eax
	jne	.L19
	.loc 1 141 0
	jmp	.L15
.L19:
	.loc 1 144 0
	movl	-680(%rbp), %eax
	andl	$61440, %eax
	cmpl	$16384, %eax
	jne	.L15
.LBB3:
	.loc 1 145 0
	movl	$512, %edi
	call	malloc
	movq	%rax, -40(%rbp)
	.loc 1 147 0
	movq	-40(%rbp), %rax
	leaq	256(%rax), %rdx
	leaq	-560(%rbp), %rax
	movq	%rax, %rsi
	movq	%rdx, %rdi
	call	strcpy
	.loc 1 148 0
	movq	-40(%rbp), %rax
	leaq	-304(%rbp), %rdx
	movq	%rdx, %rsi
	movq	%rax, %rdi
	call	strcpy
	.loc 1 149 0
	movq	-40(%rbp), %rax
	movq	%rax, %rdi
	movl	$0, %eax
	call	new_jval_v
	movq	%rax, %rdx
	movq	-24(%rbp), %rax
	movq	%rdx, %rsi
	movq	%rax, %rdi
	call	dll_append
.L15:
.LBE3:
.LBE2:
	.loc 1 127 0 discriminator 1
	movq	-16(%rbp), %rax
	movq	%rax, %rdi
	call	readdir
	movq	%rax, -32(%rbp)
	cmpq	$0, -32(%rbp)
	jne	.L21
	.loc 1 153 0
	movq	-16(%rbp), %rax
	movq	%rax, %rdi
	call	closedir
	.loc 1 157 0
	movq	-24(%rbp), %rax
	movq	(%rax), %rax
	movq	%rax, -8(%rbp)
	jmp	.L22
.L23:
.LBB4:
	.loc 1 158 0 discriminator 2
	movq	-8(%rbp), %rax
	movq	16(%rax), %rax
	movq	%rax, -48(%rbp)
	.loc 1 159 0 discriminator 2
	movq	-720(%rbp), %rdx
	movq	-48(%rbp), %rax
	movq	%rdx, %rsi
	movq	%rax, %rdi
	call	iterate_dir
	.loc 1 160 0 discriminator 2
	movq	-48(%rbp), %rax
	movq	%rax, %rdi
	call	free
.LBE4:
	.loc 1 157 0 discriminator 2
	movq	-8(%rbp), %rax
	movq	(%rax), %rax
	movq	%rax, -8(%rbp)
.L22:
	.loc 1 157 0 is_stmt 0 discriminator 1
	movq	-8(%rbp), %rax
	cmpq	-24(%rbp), %rax
	jne	.L23
	.loc 1 163 0 is_stmt 1
	movq	-24(%rbp), %rax
	movq	%rax, %rdi
	call	free_dllist
	.loc 1 164 0
	leave
	.cfi_def_cfa 7, 8
	ret
	.cfi_endproc
.LFE4:
	.size	iterate_dir, .-iterate_dir
	.section	.rodata
.LC6:
	.string	"usage: tarc directory\n"
	.text
	.globl	main
	.type	main, @function
main:
.LFB5:
	.loc 1 166 0
	.cfi_startproc
	pushq	%rbp
	.cfi_def_cfa_offset 16
	.cfi_offset 6, -16
	movq	%rsp, %rbp
	.cfi_def_cfa_register 6
	subq	$304, %rsp
	movl	%edi, -292(%rbp)
	movq	%rsi, -304(%rbp)
	.loc 1 167 0
	cmpl	$2, -292(%rbp)
	je	.L25
	.loc 1 168 0
	movq	stderr(%rip), %rax
	movq	%rax, %rcx
	movl	$22, %edx
	movl	$1, %esi
	movl	$.LC6, %edi
	call	fwrite
	.loc 1 169 0
	movl	$1, %edi
	call	exit
.L25:
	.loc 1 172 0
	movq	-304(%rbp), %rax
	addq	$8, %rax
	movq	(%rax), %rax
	movq	%rax, %rdi
	call	strdup
	movq	%rax, -8(%rbp)
	.loc 1 174 0
	movq	-8(%rbp), %rax
	movq	%rax, %rdi
	call	get_dir_suffix
	movq	%rax, %rdx
	leaq	-288(%rbp), %rax
	movq	%rdx, %rsi
	movq	%rax, %rdi
	call	strcpy
	.loc 1 176 0
	movl	$0, %eax
	call	make_jrb
	movq	%rax, -16(%rbp)
	.loc 1 179 0
	movq	-304(%rbp), %rax
	addq	$8, %rax
	movq	(%rax), %rax
	movq	-16(%rbp), %rdx
	leaq	-288(%rbp), %rcx
	movq	%rcx, %rsi
	movq	%rax, %rdi
	call	print_file
	testl	%eax, %eax
	je	.L26
	.loc 1 180 0
	movl	$1, %edi
	call	exit
.L26:
	.loc 1 183 0
	movl	$512, %edi
	call	malloc
	movq	%rax, -24(%rbp)
	.loc 1 184 0
	movq	-304(%rbp), %rax
	addq	$8, %rax
	movq	(%rax), %rdx
	movq	-24(%rbp), %rax
	movq	%rdx, %rsi
	movq	%rax, %rdi
	call	strcpy
	.loc 1 185 0
	movq	-24(%rbp), %rax
	leaq	256(%rax), %rdx
	leaq	-288(%rbp), %rax
	movq	%rax, %rsi
	movq	%rdx, %rdi
	call	strcpy
	.loc 1 188 0
	movq	-16(%rbp), %rdx
	movq	-24(%rbp), %rax
	movq	%rdx, %rsi
	movq	%rax, %rdi
	call	iterate_dir
	.loc 1 190 0
	movq	-24(%rbp), %rax
	movq	%rax, %rdi
	call	free
	.loc 1 191 0
	movq	-8(%rbp), %rax
	movq	%rax, %rdi
	call	free
	.loc 1 192 0
	movq	-16(%rbp), %rax
	movq	%rax, %rdi
	call	jrb_free_tree
	.loc 1 193 0
	leave
	.cfi_def_cfa 7, 8
	ret
	.cfi_endproc
.LFE5:
	.size	main, .-main
.Letext0:
	.file 2 "/usr/lib/gcc/x86_64-redhat-linux/4.8.5/include/stddef.h"
	.file 3 "/usr/include/bits/types.h"
	.file 4 "/usr/include/time.h"
	.file 5 "/usr/include/stdio.h"
	.file 6 "/usr/include/libio.h"
	.file 7 "/usr/include/bits/dirent.h"
	.file 8 "/usr/include/bits/stat.h"
	.file 9 "/home/jplank/cs360/include/jval.h"
	.file 10 "/home/jplank/cs360/include/jrb.h"
	.file 11 "/usr/include/dirent.h"
	.file 12 "/home/jplank/cs360/include/dllist.h"
	.section	.note.GNU-stack,"",@progbits
